; Function Attrs: mustprogress uwtable
define internal void @_ZN10open_spiel13cliff_walking12_GLOBAL__N_17FactoryERKSt3mapINSt7__cxx1112basic_stringIcSt11char_traitsIcESaIcEEENS_13GameParameterESt4lessIS8_ESaISt4pairIKS8_S9_EEE(ptr dead_on_unwind noalias writable writeonly sret(%"class.std::shared_ptr") align 8 captures(none) %0, ptr noundef nonnull align 8 dereferenceable(48) %1) #3 personality ptr @__gxx_personality_v0 {
  %3 = alloca %"class.std::shared_ptr.59", align 8
  %4 = tail call noalias noundef nonnull dereferenceable(296) ptr @_Znwm(i64 noundef 296) #26
  invoke void @_ZN10open_spiel13cliff_walking16CliffWalkingGameC1ERKSt3mapINSt7__cxx1112basic_stringIcSt11char_traitsIcESaIcEEENS_13GameParameterESt4lessIS8_ESaISt4pairIKS8_S9_EEE(ptr noundef nonnull align 8 dereferenceable(292) %4, ptr noundef nonnull align 8 dereferenceable(48) %1)
          to label %_ZNSt10shared_ptrIN10open_spiel4GameEED2Ev.exit unwind label %9

_ZNSt10shared_ptrIN10open_spiel4GameEED2Ev.exit:  ; preds = %2
  call void @_ZNSt12__shared_ptrIN10open_spiel4GameELN9__gnu_cxx12_Lock_policyE2EEC2INS0_13cliff_walking16CliffWalkingGameEvEEPT_(ptr noundef nonnull align 8 dereferenceable(16) %3, ptr noundef nonnull %4)
  %5 = load ptr, ptr %3, align 8
  store ptr %5, ptr %0, align 8
  %6 = getelementptr inbounds nuw i8, ptr %0, i64 8
  %7 = getelementptr inbounds nuw i8, ptr %3, i64 8
  %8 = load ptr, ptr %7, align 8
  store ptr %8, ptr %6, align 8
  ret void

9:                                                ; preds = %2
  %10 = landingpad { ptr, i32 }
          cleanup
  tail call void @_ZdlPvm(ptr noundef nonnull %4, i64 noundef 296) #27
  resume { ptr, i32 } %10
}